((dp0
(F128.0
F64.0
F0.0
tp1
I17
s(F0.0
F192.0
F0.0
tp2
I18
s(F192.0
F128.0
F0.0
tp3
I11
s(F64.0
F0.0
F0.0
tp4
I8
s(F0.0
F0.0
F128.0
tp5
I4
s(F0.0
F128.0
F0.0
tp6
I2
s(F192.0
F128.0
F128.0
tp7
I15
s(F64.0
F0.0
F128.0
tp8
I12
s(F192.0
F0.0
F0.0
tp9
I9
s(F0.0
F64.0
F0.0
tp10
I16
s(F128.0
F0.0
F128.0
tp11
I5
s(F0.0
F64.0
F128.0
tp12
I20
s(F128.0
F0.0
F0.0
tp13
I1
s(F128.0
F128.0
F128.0
tp14
I7
s(F192.0
F0.0
F128.0
tp15
I13
s(F64.0
F128.0
F128.0
tp16
I14
s(F128.0
F192.0
F0.0
tp17
I19
s(F224.0
F224.0
F192.0
tp18
I255
s(F128.0
F128.0
F0.0
tp19
I3
s(F64.0
F128.0
F0.0
tp20
I10
s(F0.0
F0.0
F0.0
tp21
I0
s(F0.0
F128.0
F128.0
tp22
I6
s(dp23
I0
S'background'
p24
sI1
S'aeroplane'
p25
sI2
S'bicycle'
p26
sI3
S'bird'
p27
sI4
S'boat'
p28
sI5
S'bottle'
p29
sI6
S'bus'
p30
sI7
S'car'
p31
sI8
S'cat'
p32
sI9
S'chair'
p33
sI10
S'cow'
p34
sI11
S'diningtable'
p35
sI12
S'dog'
p36
sI13
S'horse'
p37
sI14
S'motorbike'
p38
sI15
S'person'
p39
sI16
S'potted-plant'
p40
sI17
S'sheep'
p41
sI18
S'sofa'
p42
sI19
S'train'
p43
sI20
S'tv/monitor'
p44
sI255
S'ignorelabel'
p45
stp46
.